target datalayout = "e-m:e-p270:32:32-p271:32:32-p272:64:64-i64:64-i128:128-f80:128-n8:16:32:64-S128"
target triple = "x86_64-pc-linux-gnu"

%struct.Gia_Man_t_ = type { ptr, ptr, i32, i32, i32, i32, ptr, ptr, i32, i32, i32, ptr, ptr, %struct.Vec_Int_t_, %struct.Vec_Int_t_, i32, i32, i32, %struct.Vec_Int_t_, ptr, ptr, ptr, i32, i32, i32, i32, ptr, ptr, ptr, ptr, ptr, i32, i32, ptr, i32, ptr, ptr, ptr, ptr, ptr, ptr, ptr, ptr, ptr, ptr, ptr, ptr, ptr, ptr, ptr, ptr, ptr, ptr, %struct.Vec_Int_t_, %struct.Vec_Int_t_, ptr, ptr, ptr, ptr, ptr, ptr, ptr, ptr, ptr, ptr, ptr, ptr, ptr, ptr, ptr, ptr, ptr, ptr, ptr, ptr, ptr, i32, float, float, ptr, ptr, i32, ptr, ptr, ptr, ptr, ptr, ptr, ptr, ptr, ptr, ptr, ptr, ptr, ptr, ptr, ptr, i64, i64, ptr, ptr, i32, i32, i32, i32, i32, i32, i32, i32, i32, i32, i32, i32, ptr, ptr, ptr, ptr, ptr, ptr, ptr, ptr, i32, i32, i32, ptr, i32, i32, ptr, ptr, ptr, ptr, ptr, ptr, i32, i32, ptr, %struct.Vec_Int_t_, %struct.Vec_Int_t_, %struct.Vec_Int_t_, ptr, ptr, ptr, i32, i32, i32, i32, ptr, ptr, ptr, ptr, ptr }
%struct.Vec_Int_t_ = type { i32, i32, ptr }
%struct.If_LibLut_t_ = type { ptr, i32, i32, [33 x float], [33 x [33 x float]] }
%struct.Vec_Flt_t_ = type { i32, i32, ptr }

@.str = private unnamed_addr constant [62 x i8] c"The max LUT size (%d) is less than the max fanin count (%d).\0A\00", align 1
@.str.1 = private unnamed_addr constant [48 x i8] c"Max delay = %6.2f. Delay trace using %s model:\0A\00", align 1
@.str.2 = private unnamed_addr constant [12 x i8] c"LUT library\00", align 1
@.str.3 = private unnamed_addr constant [11 x i8] c"unit-delay\00", align 1
@.str.4 = private unnamed_addr constant [26 x i8] c"%3d %s : %5d  (%6.2f %%)\0A\00", align 1
@.str.5 = private unnamed_addr constant [2 x i8] c"%\00", align 1
@.str.6 = private unnamed_addr constant [4 x i8] c"lev\00", align 1

; Function Attrs: inlinehint nounwind uwtable
define internal void @Vec_FltFreeP(ptr noundef %0) #2 {
  %2 = alloca ptr, align 8
  store ptr %0, ptr %2, align 8, !tbaa !106
  %3 = load ptr, ptr %2, align 8, !tbaa !106
  %4 = load ptr, ptr %3, align 8, !tbaa !99
  %5 = icmp eq ptr %4, null
  br i1 %5, label %6, label %7

6:                                                ; preds = %1
  br label %32

7:                                                ; preds = %1
  %8 = load ptr, ptr %2, align 8, !tbaa !106
  %9 = load ptr, ptr %8, align 8, !tbaa !99
  %10 = getelementptr inbounds nuw %struct.Vec_Flt_t_, ptr %9, i32 0, i32 2
  %11 = load ptr, ptr %10, align 8, !tbaa !100
  %12 = icmp ne ptr %11, null
  br i1 %12, label %13, label %21

13:                                               ; preds = %7
  %14 = load ptr, ptr %2, align 8, !tbaa !106
  %15 = load ptr, ptr %14, align 8, !tbaa !99
  %16 = getelementptr inbounds nuw %struct.Vec_Flt_t_, ptr %15, i32 0, i32 2
  %17 = load ptr, ptr %16, align 8, !tbaa !100
  call void @free(ptr noundef %17) #9
  %18 = load ptr, ptr %2, align 8, !tbaa !106
  %19 = load ptr, ptr %18, align 8, !tbaa !99
  %20 = getelementptr inbounds nuw %struct.Vec_Flt_t_, ptr %19, i32 0, i32 2
  store ptr null, ptr %20, align 8, !tbaa !100
  br label %22

21:                                               ; preds = %7
  br label %22

22:                                               ; preds = %21, %13
  %23 = load ptr, ptr %2, align 8, !tbaa !106
  %24 = load ptr, ptr %23, align 8, !tbaa !99
  %25 = icmp ne ptr %24, null
  br i1 %25, label %26, label %30

26:                                               ; preds = %22
  %27 = load ptr, ptr %2, align 8, !tbaa !106
  %28 = load ptr, ptr %27, align 8, !tbaa !99
  call void @free(ptr noundef %28) #9
  %29 = load ptr, ptr %2, align 8, !tbaa !106
  store ptr null, ptr %29, align 8, !tbaa !99
  br label %31

30:                                               ; preds = %22
  br label %31

31:                                               ; preds = %30, %26
  br label %32

32:                                               ; preds = %31, %6
  ret void
}

; Function Attrs: inlinehint nounwind uwtable
define internal float @Vec_FltEntry(ptr noundef %0, i32 noundef %1) #2 {
  %3 = alloca ptr, align 8
  %4 = alloca i32, align 4
  store ptr %0, ptr %3, align 8, !tbaa !99
  store i32 %1, ptr %4, align 4, !tbaa !8
  %5 = load ptr, ptr %3, align 8, !tbaa !99
  %6 = getelementptr inbounds nuw %struct.Vec_Flt_t_, ptr %5, i32 0, i32 2
  %7 = load ptr, ptr %6, align 8, !tbaa !100
  %8 = load i32, ptr %4, align 4, !tbaa !8
  %9 = sext i32 %8 to i64
  %10 = getelementptr inbounds float, ptr %7, i64 %9
  %11 = load float, ptr %10, align 4, !tbaa !14
  ret float %11
}

; Function Attrs: inlinehint nounwind uwtable
define internal i32 @Vec_IntEntry(ptr noundef %0, i32 noundef %1) #2 {
  %3 = alloca ptr, align 8
  %4 = alloca i32, align 4
  store ptr %0, ptr %3, align 8, !tbaa !63
  store i32 %1, ptr %4, align 4, !tbaa !8
  %5 = load ptr, ptr %3, align 8, !tbaa !63
  %6 = getelementptr inbounds nuw %struct.Vec_Int_t_, ptr %5, i32 0, i32 2
  %7 = load ptr, ptr %6, align 8, !tbaa !66
  %8 = load i32, ptr %4, align 4, !tbaa !8
  %9 = sext i32 %8 to i64
  %10 = getelementptr inbounds i32, ptr %7, i64 %9
  %11 = load i32, ptr %10, align 4, !tbaa !8
  ret i32 %11
}

; Function Attrs: inlinehint nounwind uwtable
define internal void @Gia_ManTimeStop(ptr noundef %0) #2 {
  %2 = alloca ptr, align 8
  store ptr %0, ptr %2, align 8, !tbaa !3
  %3 = load ptr, ptr %2, align 8, !tbaa !3
  %4 = getelementptr inbounds nuw %struct.Gia_Man_t_, ptr %3, i32 0, i32 94
  call void @Vec_FltFreeP(ptr noundef %4)
  ret void
}

; Function Attrs: inlinehint nounwind uwtable
define internal float @Gia_ObjTimeSlack(ptr noundef %0, i32 noundef %1) #2 {
  %3 = alloca ptr, align 8
  %4 = alloca i32, align 4
  store ptr %0, ptr %3, align 8, !tbaa !3
  store i32 %1, ptr %4, align 4, !tbaa !8
  %5 = load ptr, ptr %3, align 8, !tbaa !3
  %6 = getelementptr inbounds nuw %struct.Gia_Man_t_, ptr %5, i32 0, i32 94
  %7 = load ptr, ptr %6, align 8, !tbaa !39
  %8 = load i32, ptr %4, align 4, !tbaa !8
  %9 = mul nsw i32 3, %8
  %10 = add nsw i32 %9, 2
  %11 = call float @Vec_FltEntry(ptr noundef %7, i32 noundef %10)
  ret float %11
}

; Function Attrs: inlinehint nounwind uwtable
define internal i32 @Gia_ObjLutSize(ptr noundef %0, i32 noundef %1) #2 {
  %3 = alloca ptr, align 8
  %4 = alloca i32, align 4
  store ptr %0, ptr %3, align 8, !tbaa !3
  store i32 %1, ptr %4, align 4, !tbaa !8
  %5 = load ptr, ptr %3, align 8, !tbaa !3
  %6 = getelementptr inbounds nuw %struct.Gia_Man_t_, ptr %5, i32 0, i32 37
  %7 = load ptr, ptr %6, align 8, !tbaa !21
  %8 = load ptr, ptr %3, align 8, !tbaa !3
  %9 = getelementptr inbounds nuw %struct.Gia_Man_t_, ptr %8, i32 0, i32 37
  %10 = load ptr, ptr %9, align 8, !tbaa !21
  %11 = load i32, ptr %4, align 4, !tbaa !8
  %12 = call i32 @Vec_IntEntry(ptr noundef %10, i32 noundef %11)
  %13 = call i32 @Vec_IntEntry(ptr noundef %7, i32 noundef %12)
  ret i32 %13
}

; Function Attrs: inlinehint nounwind uwtable
define internal i32 @Gia_ObjIsLut(ptr noundef %0, i32 noundef %1) #2 {
  %3 = alloca ptr, align 8
  %4 = alloca i32, align 4
  store ptr %0, ptr %3, align 8, !tbaa !3
  store i32 %1, ptr %4, align 4, !tbaa !8
  %5 = load ptr, ptr %3, align 8, !tbaa !3
  %6 = getelementptr inbounds nuw %struct.Gia_Man_t_, ptr %5, i32 0, i32 37
  %7 = load ptr, ptr %6, align 8, !tbaa !21
  %8 = load i32, ptr %4, align 4, !tbaa !8
  %9 = call i32 @Vec_IntEntry(ptr noundef %7, i32 noundef %8)
  %10 = icmp ne i32 %9, 0
  %11 = zext i1 %10 to i32
  ret i32 %11
}

; Function Attrs: inlinehint nounwind uwtable
define internal i32 @Gia_ManObjNum(ptr noundef %0) #2 {
  %2 = alloca ptr, align 8
  store ptr %0, ptr %2, align 8, !tbaa !3
  %3 = load ptr, ptr %2, align 8, !tbaa !3
  %4 = getelementptr inbounds nuw %struct.Gia_Man_t_, ptr %3, i32 0, i32 4
  %5 = load i32, ptr %4, align 8, !tbaa !58
  ret i32 %5
}

; Function Attrs: nounwind uwtable
define float @Gia_ManDelayTraceLutPrint(ptr noundef %0, i32 noundef %1) #0 {
  %3 = alloca float, align 4
  %4 = alloca ptr, align 8
  %5 = alloca i32, align 4
  %6 = alloca ptr, align 8
  %7 = alloca i32, align 4
  %8 = alloca i32, align 4
  %9 = alloca ptr, align 8
  %10 = alloca float, align 4
  %11 = alloca float, align 4
  %12 = alloca float, align 4
  %13 = alloca float, align 4
  %14 = alloca i32, align 4
  store ptr %0, ptr %4, align 8, !tbaa !3
  store i32 %1, ptr %5, align 4, !tbaa !8
  call void @llvm.lifetime.start.p0(i64 8, ptr %6) #9
  %15 = load ptr, ptr %4, align 8, !tbaa !3
  %16 = getelementptr inbounds nuw %struct.Gia_Man_t_, ptr %15, i32 0, i32 96
  %17 = load ptr, ptr %16, align 8, !tbaa !41
  store ptr %17, ptr %6, align 8, !tbaa !42
  call void @llvm.lifetime.start.p0(i64 4, ptr %7) #9
  call void @llvm.lifetime.start.p0(i64 4, ptr %8) #9
  call void @llvm.lifetime.start.p0(i64 8, ptr %9) #9
  call void @llvm.lifetime.start.p0(i64 4, ptr %10) #9
  call void @llvm.lifetime.start.p0(i64 4, ptr %11) #9
  call void @llvm.lifetime.start.p0(i64 4, ptr %12) #9
  call void @llvm.lifetime.start.p0(i64 4, ptr %13) #9
  %18 = load ptr, ptr %6, align 8, !tbaa !42
  %19 = icmp ne ptr %18, null
  br i1 %19, label %20, label %34

20:                                               ; preds = %2
  %21 = load ptr, ptr %6, align 8, !tbaa !42
  %22 = getelementptr inbounds nuw %struct.If_LibLut_t_, ptr %21, i32 0, i32 1
  %23 = load i32, ptr %22, align 8, !tbaa !56
  %24 = load ptr, ptr %4, align 8, !tbaa !3
  %25 = call i32 @Gia_ManLutSizeMax(ptr noundef %24)
  %26 = icmp slt i32 %23, %25
  br i1 %26, label %27, label %34

27:                                               ; preds = %20
  %28 = load ptr, ptr %6, align 8, !tbaa !42
  %29 = getelementptr inbounds nuw %struct.If_LibLut_t_, ptr %28, i32 0, i32 1
  %30 = load i32, ptr %29, align 8, !tbaa !56
  %31 = load ptr, ptr %4, align 8, !tbaa !3
  %32 = call i32 @Gia_ManLutSizeMax(ptr noundef %31)
  %33 = call i32 (ptr, ...) @printf(ptr noundef @.str, i32 noundef %30, i32 noundef %32)
  store float -1.000000e+09, ptr %3, align 4
  store i32 1, ptr %14, align 4
  br label %157

34:                                               ; preds = %20, %2
  %35 = load ptr, ptr %6, align 8, !tbaa !42
  %36 = icmp ne ptr %35, null
  br i1 %36, label %37, label %38

37:                                               ; preds = %34
  br label %41

38:                                               ; preds = %34
  %39 = load ptr, ptr %4, align 8, !tbaa !3
  %40 = call i32 @Gia_ManLutLevel(ptr noundef %39, ptr noundef null)
  br label %41

41:                                               ; preds = %38, %37
  %42 = phi i32 [ 20, %37 ], [ %40, %38 ]
  %43 = sitofp i32 %42 to float
  store float %43, ptr %12, align 4, !tbaa !14
  %44 = load float, ptr %12, align 4, !tbaa !14
  %45 = fadd float %44, 1.000000e+00
  %46 = fptoui float %45 to i64
  %47 = mul i64 4, %46
  %48 = call noalias ptr @malloc(i64 noundef %47) #10
  store ptr %48, ptr %9, align 8, !tbaa !10
  %49 = load ptr, ptr %9, align 8, !tbaa !10
  %50 = load float, ptr %12, align 4, !tbaa !14
  %51 = fadd float %50, 1.000000e+00
  %52 = fmul float 4.000000e+00, %51
  %53 = fptoui float %52 to i64
  call void @llvm.memset.p0.i64(ptr align 4 %49, i8 0, i64 %53, i1 false)
  %54 = load ptr, ptr %4, align 8, !tbaa !3
  %55 = call float @Gia_ManDelayTraceLut(ptr noundef %54)
  store float %55, ptr %10, align 4, !tbaa !14
  %56 = load float, ptr %10, align 4, !tbaa !14
  %57 = load float, ptr %12, align 4, !tbaa !14
  %58 = fdiv float %56, %57
  store float %58, ptr %11, align 4, !tbaa !14
  store i32 1, ptr %7, align 4, !tbaa !8
  br label %59

59:                                               ; preds = %95, %41
  %60 = load i32, ptr %7, align 4, !tbaa !8
  %61 = load ptr, ptr %4, align 8, !tbaa !3
  %62 = call i32 @Gia_ManObjNum(ptr noundef %61)
  %63 = icmp slt i32 %60, %62
  br i1 %63, label %64, label %98

64:                                               ; preds = %59
  %65 = load ptr, ptr %4, align 8, !tbaa !3
  %66 = load i32, ptr %7, align 4, !tbaa !8
  %67 = call i32 @Gia_ObjIsLut(ptr noundef %65, i32 noundef %66)
  %68 = icmp ne i32 %67, 0
  br i1 %68, label %70, label %69

69:                                               ; preds = %64
  br label %94

70:                                               ; preds = %64
  %71 = load ptr, ptr %4, align 8, !tbaa !3
  %72 = load i32, ptr %7, align 4, !tbaa !8
  %73 = call i32 @Gia_ObjLutSize(ptr noundef %71, i32 noundef %72)
  %74 = icmp eq i32 %73, 0
  br i1 %74, label %75, label %76

75:                                               ; preds = %70
  br label %95

76:                                               ; preds = %70
  %77 = load ptr, ptr %4, align 8, !tbaa !3
  %78 = load i32, ptr %7, align 4, !tbaa !8
  %79 = call float @Gia_ObjTimeSlack(ptr noundef %77, i32 noundef %78)
  %80 = load float, ptr %11, align 4, !tbaa !14
  %81 = fdiv float %79, %80
  store float %81, ptr %13, align 4, !tbaa !14
  %82 = load float, ptr %13, align 4, !tbaa !14
  %83 = load float, ptr %12, align 4, !tbaa !14
  %84 = fcmp ogt float %82, %83
  br i1 %84, label %85, label %86

85:                                               ; preds = %76
  br label %95

86:                                               ; preds = %76
  %87 = load ptr, ptr %9, align 8, !tbaa !10
  %88 = load float, ptr %13, align 4, !tbaa !14
  %89 = fptosi float %88 to i32
  %90 = sext i32 %89 to i64
  %91 = getelementptr inbounds i32, ptr %87, i64 %90
  %92 = load i32, ptr %91, align 4, !tbaa !8
  %93 = add nsw i32 %92, 1
  store i32 %93, ptr %91, align 4, !tbaa !8
  br label %94

94:                                               ; preds = %86, %69
  br label %95

95:                                               ; preds = %94, %85, %75
  %96 = load i32, ptr %7, align 4, !tbaa !8
  %97 = add nsw i32 %96, 1
  store i32 %97, ptr %7, align 4, !tbaa !8
  br label %59, !llvm.loop !67

98:                                               ; preds = %59
  %99 = load i32, ptr %5, align 4, !tbaa !8
  %100 = icmp ne i32 %99, 0
  br i1 %100, label %101, label %148

101:                                              ; preds = %98
  %102 = load float, ptr %10, align 4, !tbaa !14
  %103 = fpext float %102 to double
  %104 = load ptr, ptr %6, align 8, !tbaa !42
  %105 = icmp ne ptr %104, null
  %106 = select i1 %105, ptr @.str.2, ptr @.str.3
  %107 = call i32 (ptr, ...) @printf(ptr noundef @.str.1, double noundef %103, ptr noundef %106)
  store i32 0, ptr %8, align 4, !tbaa !8
  store i32 0, ptr %7, align 4, !tbaa !8
  br label %108

108:                                              ; preds = %144, %101
  %109 = load i32, ptr %7, align 4, !tbaa !8
  %110 = sitofp i32 %109 to float
  %111 = load float, ptr %12, align 4, !tbaa !14
  %112 = fcmp olt float %110, %111
  br i1 %112, label %113, label %147

113:                                              ; preds = %108
  %114 = load ptr, ptr %9, align 8, !tbaa !10
  %115 = load i32, ptr %7, align 4, !tbaa !8
  %116 = sext i32 %115 to i64
  %117 = getelementptr inbounds i32, ptr %114, i64 %116
  %118 = load i32, ptr %117, align 4, !tbaa !8
  %119 = load i32, ptr %8, align 4, !tbaa !8
  %120 = add nsw i32 %119, %118
  store i32 %120, ptr %8, align 4, !tbaa !8
  %121 = load ptr, ptr %6, align 8, !tbaa !42
  %122 = icmp ne ptr %121, null
  br i1 %122, label %123, label %127

123:                                              ; preds = %113
  %124 = load i32, ptr %7, align 4, !tbaa !8
  %125 = add nsw i32 %124, 1
  %126 = mul nsw i32 5, %125
  br label %130

127:                                              ; preds = %113
  %128 = load i32, ptr %7, align 4, !tbaa !8
  %129 = add nsw i32 %128, 1
  br label %130

130:                                              ; preds = %127, %123
  %131 = phi i32 [ %126, %123 ], [ %129, %127 ]
  %132 = load ptr, ptr %6, align 8, !tbaa !42
  %133 = icmp ne ptr %132, null
  %134 = select i1 %133, ptr @.str.5, ptr @.str.6
  %135 = load i32, ptr %8, align 4, !tbaa !8
  %136 = load i32, ptr %8, align 4, !tbaa !8
  %137 = sitofp i32 %136 to double
  %138 = fmul double 1.000000e+02, %137
  %139 = load ptr, ptr %4, align 8, !tbaa !3
  %140 = call i32 @Gia_ManLutNum(ptr noundef %139)
  %141 = sitofp i32 %140 to double
  %142 = fdiv double %138, %141
  %143 = call i32 (ptr, ...) @printf(ptr noundef @.str.4, i32 noundef %131, ptr noundef %134, i32 noundef %135, double noundef %142)
  br label %144

144:                                              ; preds = %130
  %145 = load i32, ptr %7, align 4, !tbaa !8
  %146 = add nsw i32 %145, 1
  store i32 %146, ptr %7, align 4, !tbaa !8
  br label %108, !llvm.loop !68

147:                                              ; preds = %108
  br label %148

148:                                              ; preds = %147, %98
  %149 = load ptr, ptr %9, align 8, !tbaa !10
  %150 = icmp ne ptr %149, null
  br i1 %150, label %151, label %153

151:                                              ; preds = %148
  %152 = load ptr, ptr %9, align 8, !tbaa !10
  call void @free(ptr noundef %152) #9
  store ptr null, ptr %9, align 8, !tbaa !10
  br label %154

153:                                              ; preds = %148
  br label %154

154:                                              ; preds = %153, %151
  %155 = load ptr, ptr %4, align 8, !tbaa !3
  call void @Gia_ManTimeStop(ptr noundef %155)
  %156 = load float, ptr %10, align 4, !tbaa !14
  store float %156, ptr %3, align 4
  store i32 1, ptr %14, align 4
  br label %157

157:                                              ; preds = %154, %27
  call void @llvm.lifetime.end.p0(i64 4, ptr %13) #9
  call void @llvm.lifetime.end.p0(i64 4, ptr %12) #9
  call void @llvm.lifetime.end.p0(i64 4, ptr %11) #9
  call void @llvm.lifetime.end.p0(i64 4, ptr %10) #9
  call void @llvm.lifetime.end.p0(i64 8, ptr %9) #9
  call void @llvm.lifetime.end.p0(i64 4, ptr %8) #9
  call void @llvm.lifetime.end.p0(i64 4, ptr %7) #9
  call void @llvm.lifetime.end.p0(i64 8, ptr %6) #9
  %158 = load float, ptr %3, align 4
  ret float %158
}