; Function Attrs: nounwind uwtable
define float @Gia_ManDelayTraceLutPrint(ptr noundef %0, i32 noundef %1) local_unnamed_addr #4 {
  %3 = getelementptr inbounds nuw i8, ptr %0, i64 744
  %4 = load ptr, ptr %3, align 8, !tbaa !40
  %.not = icmp eq ptr %4, null
  br i1 %.not, label %.critedge, label %5

5:                                                ; preds = %2
  %6 = getelementptr inbounds nuw i8, ptr %4, i64 8
  %7 = load i32, ptr %6, align 8, !tbaa !52
  %8 = tail call i32 @Gia_ManLutSizeMax(ptr noundef nonnull %0) #14
  %9 = icmp slt i32 %7, %8
  br i1 %9, label %10, label %16

10:                                               ; preds = %5
  %11 = load i32, ptr %6, align 8, !tbaa !52
  %12 = tail call i32 @Gia_ManLutSizeMax(ptr noundef nonnull %0) #14
  %13 = tail call i32 (ptr, ...) @printf(ptr noundef nonnull dereferenceable(1) @.str, i32 noundef %11, i32 noundef %12)
  br label %Gia_ManTimeStop.exit

.critedge:                                        ; preds = %2
  %14 = tail call i32 @Gia_ManLutLevel(ptr noundef nonnull %0, ptr noundef null) #14
  %15 = sitofp i32 %14 to float
  br label %16

16:                                               ; preds = %5, %.critedge
  %17 = phi float [ %15, %.critedge ], [ 2.000000e+01, %5 ]
  %18 = fadd float %17, 1.000000e+00
  %19 = fptoui float %18 to i64
  %20 = shl i64 %19, 2
  %21 = tail call noalias ptr @malloc(i64 noundef %20) #15
  %22 = fmul float %18, 4.000000e+00
  %23 = fptoui float %22 to i64
  tail call void @llvm.memset.p0.i64(ptr align 4 %21, i8 0, i64 %23, i1 false)
  %24 = tail call float @Gia_ManDelayTraceLut(ptr noundef nonnull %0)
  %25 = fdiv float %24, %17
  %26 = getelementptr i8, ptr %0, i64 24
  %.val56 = load i32, ptr %26, align 8, !tbaa !53
  %27 = icmp sgt i32 %.val56, 1
  br i1 %27, label %.lr.ph, label %._crit_edge

.lr.ph:                                           ; preds = %16
  %28 = getelementptr i8, ptr %0, i64 264
  %.val57 = load ptr, ptr %28, align 8, !tbaa !3
  %29 = getelementptr i8, ptr %.val57, i64 8
  %.val57.val = load ptr, ptr %29, align 8, !tbaa !28
  %30 = getelementptr i8, ptr %0, i64 728
  %wide.trip.count = zext nneg i32 %.val56 to i64
  br label %31

31:                                               ; preds = %.lr.ph, %52
  %indvars.iv = phi i64 [ 1, %.lr.ph ], [ %indvars.iv.next, %52 ]
  %32 = getelementptr inbounds nuw i32, ptr %.val57.val, i64 %indvars.iv
  %33 = load i32, ptr %32, align 4, !tbaa !29
  %.not59 = icmp eq i32 %33, 0
  br i1 %.not59, label %52, label %34

34:                                               ; preds = %31
  %35 = sext i32 %33 to i64
  %36 = getelementptr inbounds i32, ptr %.val57.val, i64 %35
  %37 = load i32, ptr %36, align 4, !tbaa !29
  %38 = icmp eq i32 %37, 0
  br i1 %38, label %52, label %39

39:                                               ; preds = %34
  %.val58 = load ptr, ptr %30, align 8, !tbaa !30
  %40 = getelementptr i8, ptr %.val58, i64 8
  %.val58.val = load ptr, ptr %40, align 8, !tbaa !31
  %.idx = mul i64 %indvars.iv, 12
  %41 = getelementptr i8, ptr %.val58.val, i64 %.idx
  %42 = getelementptr i8, ptr %41, i64 8
  %43 = load float, ptr %42, align 4, !tbaa !34
  %44 = fdiv float %43, %25
  %45 = fcmp ogt float %44, %17
  br i1 %45, label %52, label %46

46:                                               ; preds = %39
  %47 = fptosi float %44 to i32
  %48 = sext i32 %47 to i64
  %49 = getelementptr inbounds i32, ptr %21, i64 %48
  %50 = load i32, ptr %49, align 4, !tbaa !29
  %51 = add nsw i32 %50, 1
  store i32 %51, ptr %49, align 4, !tbaa !29
  br label %52

52:                                               ; preds = %46, %31, %39, %34
  %indvars.iv.next = add nuw nsw i64 %indvars.iv, 1
  %exitcond.not = icmp eq i64 %indvars.iv.next, %wide.trip.count
  br i1 %exitcond.not, label %._crit_edge, label %31, !llvm.loop !64

._crit_edge:                                      ; preds = %52, %16
  %.not53 = icmp eq i32 %1, 0
  br i1 %.not53, label %.loopexit, label %53

53:                                               ; preds = %._crit_edge
  %54 = fpext float %24 to double
  %55 = select i1 %.not, ptr @.str.3, ptr @.str.2
  %56 = tail call i32 (ptr, ...) @printf(ptr noundef nonnull dereferenceable(1) @.str.1, double noundef %54, ptr noundef nonnull %55)
  %57 = fcmp ogt float %17, 0.000000e+00
  br i1 %57, label %.lr.ph64, label %.loopexit

.lr.ph64:                                         ; preds = %53
  %58 = select i1 %.not, ptr @.str.6, ptr @.str.5
  br i1 %.not, label %.lr.ph64.split.us, label %.lr.ph64.split

.lr.ph64.split.us:                                ; preds = %.lr.ph64, %.lr.ph64.split.us
  %indvars.iv70 = phi i64 [ %indvars.iv.next71, %.lr.ph64.split.us ], [ 0, %.lr.ph64 ]
  %.04961.us = phi i32 [ %61, %.lr.ph64.split.us ], [ 0, %.lr.ph64 ]
  %59 = getelementptr inbounds nuw i32, ptr %21, i64 %indvars.iv70
  %60 = load i32, ptr %59, align 4, !tbaa !29
  %61 = add nsw i32 %60, %.04961.us
  %indvars.iv.next71 = add nuw nsw i64 %indvars.iv70, 1
  %62 = sitofp i32 %61 to double
  %63 = fmul double %62, 1.000000e+02
  %64 = tail call i32 @Gia_ManLutNum(ptr noundef nonnull %0) #14
  %65 = sitofp i32 %64 to double
  %66 = fdiv double %63, %65
  %67 = trunc nuw i64 %indvars.iv.next71 to i32
  %68 = tail call i32 (ptr, ...) @printf(ptr noundef nonnull dereferenceable(1) @.str.4, i32 noundef %67, ptr noundef nonnull %58, i32 noundef %61, double noundef %66)
  %69 = uitofp nneg i32 %67 to float
  %70 = fcmp ogt float %17, %69
  br i1 %70, label %.lr.ph64.split.us, label %.loopexit.thread, !llvm.loop !65

.lr.ph64.split:                                   ; preds = %.lr.ph64, %.lr.ph64.split
  %indvars.iv67 = phi i64 [ %indvars.iv.next68, %.lr.ph64.split ], [ 0, %.lr.ph64 ]
  %.04961 = phi i32 [ %73, %.lr.ph64.split ], [ 0, %.lr.ph64 ]
  %71 = getelementptr inbounds nuw i32, ptr %21, i64 %indvars.iv67
  %72 = load i32, ptr %71, align 4, !tbaa !29
  %73 = add nsw i32 %72, %.04961
  %74 = trunc nuw nsw i64 %indvars.iv67 to i32
  %75 = mul i32 %74, 5
  %76 = add i32 %75, 5
  %indvars.iv.next68 = add nuw nsw i64 %indvars.iv67, 1
  %77 = sitofp i32 %73 to double
  %78 = fmul double %77, 1.000000e+02
  %79 = tail call i32 @Gia_ManLutNum(ptr noundef nonnull %0) #14
  %80 = sitofp i32 %79 to double
  %81 = fdiv double %78, %80
  %82 = tail call i32 (ptr, ...) @printf(ptr noundef nonnull dereferenceable(1) @.str.4, i32 noundef %76, ptr noundef nonnull %58, i32 noundef %73, double noundef %81)
  %83 = trunc nuw i64 %indvars.iv.next68 to i32
  %84 = uitofp nneg i32 %83 to float
  %85 = fcmp ogt float %17, %84
  br i1 %85, label %.lr.ph64.split, label %.loopexit.thread, !llvm.loop !65

.loopexit:                                        ; preds = %53, %._crit_edge
  %.not54 = icmp eq ptr %21, null
  br i1 %.not54, label %86, label %.loopexit.thread

.loopexit.thread:                                 ; preds = %.lr.ph64.split, %.lr.ph64.split.us, %.loopexit
  tail call void @free(ptr noundef nonnull %21) #14
  br label %86

86:                                               ; preds = %.loopexit, %.loopexit.thread
  %87 = getelementptr inbounds nuw i8, ptr %0, i64 728
  %88 = load ptr, ptr %87, align 8, !tbaa !66
  %89 = icmp eq ptr %88, null
  br i1 %89, label %Gia_ManTimeStop.exit, label %90

90:                                               ; preds = %86
  %91 = getelementptr inbounds nuw i8, ptr %88, i64 8
  %92 = load ptr, ptr %91, align 8, !tbaa !31
  %.not.i.i = icmp eq ptr %92, null
  br i1 %.not.i.i, label %95, label %.thread.i.i

.thread.i.i:                                      ; preds = %90
  tail call void @free(ptr noundef nonnull %92) #14
  %93 = load ptr, ptr %87, align 8, !tbaa !66
  %94 = getelementptr inbounds nuw i8, ptr %93, i64 8
  store ptr null, ptr %94, align 8, !tbaa !31
  br label %95

95:                                               ; preds = %.thread.i.i, %90
  %96 = phi ptr [ %93, %.thread.i.i ], [ %88, %90 ]
  tail call void @free(ptr noundef nonnull %96) #14
  store ptr null, ptr %87, align 8, !tbaa !66
  br label %Gia_ManTimeStop.exit

Gia_ManTimeStop.exit:                             ; preds = %95, %86, %10
  %.0 = phi float [ -1.000000e+09, %10 ], [ %24, %86 ], [ %24, %95 ]
  ret float %.0
}